; Function Attrs: mustprogress nounwind uwtable
define internal fastcc noundef zeroext i1 @_ZNK4llvm20iterator_facade_baseINS_20ImutAVLValueIteratorINS_12ImmutableMapIN12_GLOBAL__N_110BindingKeyEN5clang4ento4SValENS_16ImutKeyValueInfoIS4_S7_EEEEEESt26bidirectional_iterator_tagKSt4pairIS4_S7_ElPSF_RSF_EneERKSB_(ptr noundef nonnull align 1 dereferenceable(1) %0, ptr noundef nonnull align 8 dereferenceable(176) %1) unnamed_addr #2 align 2 {
  %3 = tail call noundef i64 @_ZNK4llvm15SmallVectorBaseIjE4sizeEv(ptr noundef nonnull align 8 dereferenceable(176) %0) #17
  %4 = tail call noundef i64 @_ZNK4llvm15SmallVectorBaseIjE4sizeEv(ptr noundef nonnull align 8 dereferenceable(176) %1) #17
  %.not.i.i.i.i = icmp eq i64 %3, %4
  br i1 %.not.i.i.i.i, label %5, label %_ZN4llvmeqERKNS_21iterator_adaptor_baseINS_20ImutAVLValueIteratorINS_12ImmutableMapIN12_GLOBAL__N_110BindingKeyEN5clang4ento4SValENS_16ImutKeyValueInfoIS4_S7_EEEEEENS_26ImutAVLTreeInOrderIteratorIS9_EESt26bidirectional_iterator_tagKSt4pairIS4_S7_ElPSH_RSH_EESM_.exit

5:                                                ; preds = %2
  %6 = load ptr, ptr %0, align 8
  %7 = tail call noundef i64 @_ZNK4llvm15SmallVectorBaseIjE4sizeEv(ptr noundef nonnull align 8 dereferenceable(176) %0) #17
  %.not.i.i.i.i.i.i.i.i = icmp eq i64 %7, 0
  br i1 %.not.i.i.i.i.i.i.i.i, label %_ZN4llvmeqERKNS_21iterator_adaptor_baseINS_20ImutAVLValueIteratorINS_12ImmutableMapIN12_GLOBAL__N_110BindingKeyEN5clang4ento4SValENS_16ImutKeyValueInfoIS4_S7_EEEEEENS_26ImutAVLTreeInOrderIteratorIS9_EESt26bidirectional_iterator_tagKSt4pairIS4_S7_ElPSH_RSH_EESM_.exit, label %8

8:                                                ; preds = %5
  %9 = load ptr, ptr %1, align 8
  %.idx.i.i.i.i = shl nsw i64 %7, 3
  %bcmp.i.i.i.i.i.i.i.i = tail call i32 @bcmp(ptr %6, ptr %9, i64 %.idx.i.i.i.i)
  %.not7.i.i.i.i.i.i.i.i = icmp ne i32 %bcmp.i.i.i.i.i.i.i.i, 0
  br label %_ZN4llvmeqERKNS_21iterator_adaptor_baseINS_20ImutAVLValueIteratorINS_12ImmutableMapIN12_GLOBAL__N_110BindingKeyEN5clang4ento4SValENS_16ImutKeyValueInfoIS4_S7_EEEEEENS_26ImutAVLTreeInOrderIteratorIS9_EESt26bidirectional_iterator_tagKSt4pairIS4_S7_ElPSH_RSH_EESM_.exit

_ZN4llvmeqERKNS_21iterator_adaptor_baseINS_20ImutAVLValueIteratorINS_12ImmutableMapIN12_GLOBAL__N_110BindingKeyEN5clang4ento4SValENS_16ImutKeyValueInfoIS4_S7_EEEEEENS_26ImutAVLTreeInOrderIteratorIS9_EESt26bidirectional_iterator_tagKSt4pairIS4_S7_ElPSH_RSH_EESM_.exit: ; preds = %2, %5, %8
  %.0.i.i.i.i = phi i1 [ true, %2 ], [ %.not7.i.i.i.i.i.i.i.i, %8 ], [ false, %5 ]
  ret i1 %.0.i.i.i.i
}